(dp0
S'pistons'
p1
I1610612765
sS'grizzlies'
p2
I1610612763
sS'bucks'
p3
I1610612749
sS'kings'
p4
I1610612758
sS'sixers'
p5
I1610612755
sS'hornets'
p6
I1610612740
sS'knicks'
p7
I1610612752
sS'warriors'
p8
I1610612744
sS'hawks'
p9
I1610612737
sS'wizards'
p10
I1610612764
sS'suns'
p11
I1610612756
sS'nuggets'
p12
I1610612743
sS'cavaliers'
p13
I1610612739
sS'jazz'
p14
I1610612762
sS'timberwolves'
p15
I1610612750
sS'clippers'
p16
I1610612746
sS'bulls'
p17
I1610612741
sS'blazers'
p18
I1610612757
sS'celtics'
p19
I1610612738
sS'nets'
p20
I1610612751
sS'magic'
p21
I1610612753
sS'mavericks'
p22
I1610612742
sS'bobcats'
p23
I1610612766
sS'heat'
p24
I1610612748
sS'lakers'
p25
I1610612747
sS'pacers'
p26
I1610612754
sS'rockets'
p27
I1610612745
sS'thunder'
p28
I1610612760
sS'raptors'
p29
I1610612761
sS'spurs'
p30
I1610612759
s.