(dp0
S'pistons'
p1
S'http://stats.nba.com/team/#!/1610612765/players/?Period=4&sort=MIN&dir=1'
p2
sS'grizzlies'
p3
S'http://stats.nba.com/team/#!/1610612763/players/?Period=4&sort=MIN&dir=1'
p4
sS'kings'
p5
S'http://stats.nba.com/team/#!/1610612758/players/?Period=4&sort=MIN&dir=1'
p6
sS'bucks'
p7
S'http://stats.nba.com/team/#!/1610612749/players/?Period=4&sort=MIN&dir=1'
p8
sS'sixers'
p9
S'http://stats.nba.com/team/#!/1610612755/players/?Period=4&sort=MIN&dir=1'
p10
sS'hornets'
p11
S'http://stats.nba.com/team/#!/1610612740/players/?Period=4&sort=MIN&dir=1'
p12
sS'knicks'
p13
S'http://stats.nba.com/team/#!/1610612752/players/?Period=4&sort=MIN&dir=1'
p14
sS'warriors'
p15
S'http://stats.nba.com/team/#!/1610612744/players/?Period=4&sort=MIN&dir=1'
p16
sS'hawks'
p17
S'http://stats.nba.com/team/#!/1610612737/players/?Period=4&sort=MIN&dir=1'
p18
sS'wizards'
p19
S'http://stats.nba.com/team/#!/1610612764/players/?Period=4&sort=MIN&dir=1'
p20
sS'suns'
p21
S'http://stats.nba.com/team/#!/1610612756/players/?Period=4&sort=MIN&dir=1'
p22
sS'nuggets'
p23
S'http://stats.nba.com/team/#!/1610612743/players/?Period=4&sort=MIN&dir=1'
p24
sS'cavaliers'
p25
S'http://stats.nba.com/team/#!/1610612739/players/?Period=4&sort=MIN&dir=1'
p26
sS'jazz'
p27
S'http://stats.nba.com/team/#!/1610612762/players/?Period=4&sort=MIN&dir=1'
p28
sS'timberwolves'
p29
S'http://stats.nba.com/team/#!/1610612750/players/?Period=4&sort=MIN&dir=1'
p30
sS'clippers'
p31
S'http://stats.nba.com/team/#!/1610612746/players/?Period=4&sort=MIN&dir=1'
p32
sS'bulls'
p33
S'http://stats.nba.com/team/#!/1610612741/players/?Period=4&sort=MIN&dir=1'
p34
sS'blazers'
p35
S'http://stats.nba.com/team/#!/1610612757/players/?Period=4&sort=MIN&dir=1'
p36
sS'celtics'
p37
S'http://stats.nba.com/team/#!/1610612738/players/?Period=4&sort=MIN&dir=1'
p38
sS'nets'
p39
S'http://stats.nba.com/team/#!/1610612751/players/?Period=4&sort=MIN&dir=1'
p40
sS'magic'
p41
S'http://stats.nba.com/team/#!/1610612753/players/?Period=4&sort=MIN&dir=1'
p42
sS'mavericks'
p43
S'http://stats.nba.com/team/#!/1610612742/players/?Period=4&sort=MIN&dir=1'
p44
sS'bobcats'
p45
S'http://stats.nba.com/team/#!/1610612766/players/?Period=4&sort=MIN&dir=1'
p46
sS'heat'
p47
S'http://stats.nba.com/team/#!/1610612748/players/?Period=4&sort=MIN&dir=1'
p48
sS'lakers'
p49
S'http://stats.nba.com/team/#!/1610612747/players/?Period=4&sort=MIN&dir=1'
p50
sS'pacers'
p51
S'http://stats.nba.com/team/#!/1610612754/players/?Period=4&sort=MIN&dir=1'
p52
sS'rockets'
p53
S'http://stats.nba.com/team/#!/1610612745/players/?Period=4&sort=MIN&dir=1'
p54
sS'thunder'
p55
S'http://stats.nba.com/team/#!/1610612760/players/?Period=4&sort=MIN&dir=1'
p56
sS'raptors'
p57
S'http://stats.nba.com/team/#!/1610612761/players/?Period=4&sort=MIN&dir=1'
p58
sS'spurs'
p59
S'http://stats.nba.com/team/#!/1610612759/players/?Period=4&sort=MIN&dir=1'
p60
s.